target datalayout = "e-m:e-p270:32:32-p271:32:32-p272:64:64-i64:64-i128:128-f80:128-n8:16:32:64-S128"
target triple = "x86_64-pc-linux-gnu"

%struct.VuDevRegion = type { i64, i64, i64, i64, i64 }
%struct.VuDev = type { i32, i32, ptr, ptr, %struct.VuDevInflightInfo, i32, %union.pthread_mutex_t, i32, i64, ptr, i64, i64, i8, i16, ptr, ptr, ptr, ptr, ptr, i32, i8 }
%struct.VuDevInflightInfo = type { i32, ptr, i64 }
%union.pthread_mutex_t = type { %struct.__pthread_mutex_s }
%struct.__pthread_mutex_s = type { i32, i32, i32, i32, i32, i16, i16, %struct.__pthread_internal_list }
%struct.__pthread_internal_list = type { ptr, ptr }
%struct.VuVirtq = type { %struct.VuRing, ptr, ptr, i16, i64, i16, i16, i16, i16, i8, i8, i32, ptr, i32, i32, i32, i32, i8, %struct.vhost_vring_addr }
%struct.VuRing = type { i32, ptr, ptr, ptr, i64, i32 }
%struct.vhost_vring_addr = type { i32, i32, i64, i64, i64, i64 }

@.str.97 = private unnamed_addr constant [25 x i8] c"close log munmap() error\00", align 1

; Function Attrs: nounwind uwtable
define internal void @vu_close_log(ptr noundef %0) #0 {
  %2 = alloca ptr, align 8
  store ptr %0, ptr %2, align 8
  %3 = load ptr, ptr %2, align 8
  %4 = getelementptr inbounds nuw %struct.VuDev, ptr %3, i32 0, i32 9
  %5 = load ptr, ptr %4, align 8
  %6 = icmp ne ptr %5, null
  br i1 %6, label %7, label %20

7:                                                ; preds = %1
  %8 = load ptr, ptr %2, align 8
  %9 = getelementptr inbounds nuw %struct.VuDev, ptr %8, i32 0, i32 9
  %10 = load ptr, ptr %9, align 8
  %11 = load ptr, ptr %2, align 8
  %12 = getelementptr inbounds nuw %struct.VuDev, ptr %11, i32 0, i32 8
  %13 = load i64, ptr %12, align 8
  %14 = call i32 @munmap(ptr noundef %10, i64 noundef %13) #13
  %15 = icmp ne i32 %14, 0
  br i1 %15, label %16, label %17

16:                                               ; preds = %7
  call void @perror(ptr noundef @.str.97)
  br label %17

17:                                               ; preds = %16, %7
  %18 = load ptr, ptr %2, align 8
  %19 = getelementptr inbounds nuw %struct.VuDev, ptr %18, i32 0, i32 9
  store ptr null, ptr %19, align 8
  br label %20

20:                                               ; preds = %17, %1
  %21 = load ptr, ptr %2, align 8
  %22 = getelementptr inbounds nuw %struct.VuDev, ptr %21, i32 0, i32 5
  %23 = load i32, ptr %22, align 8
  %24 = icmp ne i32 %23, -1
  br i1 %24, label %25, label %32

25:                                               ; preds = %20
  %26 = load ptr, ptr %2, align 8
  %27 = getelementptr inbounds nuw %struct.VuDev, ptr %26, i32 0, i32 5
  %28 = load i32, ptr %27, align 8
  %29 = call i32 @close(i32 noundef %28)
  %30 = load ptr, ptr %2, align 8
  %31 = getelementptr inbounds nuw %struct.VuDev, ptr %30, i32 0, i32 5
  store i32 -1, ptr %31, align 8
  br label %32

32:                                               ; preds = %25, %20
  ret void
}

; Function Attrs: nounwind uwtable
define internal void @vu_remove_all_mem_regs(ptr noundef %0) #0 {
  %2 = alloca ptr, align 8
  %3 = alloca i32, align 4
  %4 = alloca ptr, align 8
  store ptr %0, ptr %2, align 8
  call void @llvm.lifetime.start.p0(i64 4, ptr %3) #13
  store i32 0, ptr %3, align 4, !annotation !4
  store i32 0, ptr %3, align 4
  br label %5

5:                                                ; preds = %30, %1
  %6 = load i32, ptr %3, align 4
  %7 = load ptr, ptr %2, align 8
  %8 = getelementptr inbounds nuw %struct.VuDev, ptr %7, i32 0, i32 1
  %9 = load i32, ptr %8, align 4
  %10 = icmp ult i32 %6, %9
  br i1 %10, label %11, label %33

11:                                               ; preds = %5
  call void @llvm.lifetime.start.p0(i64 8, ptr %4) #13
  %12 = load ptr, ptr %2, align 8
  %13 = getelementptr inbounds nuw %struct.VuDev, ptr %12, i32 0, i32 2
  %14 = load ptr, ptr %13, align 8
  %15 = load i32, ptr %3, align 4
  %16 = zext i32 %15 to i64
  %17 = getelementptr inbounds nuw %struct.VuDevRegion, ptr %14, i64 %16
  store ptr %17, ptr %4, align 8
  %18 = load ptr, ptr %4, align 8
  %19 = getelementptr inbounds nuw %struct.VuDevRegion, ptr %18, i32 0, i32 4
  %20 = load i64, ptr %19, align 8
  %21 = inttoptr i64 %20 to ptr
  %22 = load ptr, ptr %4, align 8
  %23 = getelementptr inbounds nuw %struct.VuDevRegion, ptr %22, i32 0, i32 1
  %24 = load i64, ptr %23, align 8
  %25 = load ptr, ptr %4, align 8
  %26 = getelementptr inbounds nuw %struct.VuDevRegion, ptr %25, i32 0, i32 3
  %27 = load i64, ptr %26, align 8
  %28 = add i64 %24, %27
  %29 = call i32 @munmap(ptr noundef %21, i64 noundef %28) #13
  call void @llvm.lifetime.end.p0(i64 8, ptr %4) #13
  br label %30

30:                                               ; preds = %11
  %31 = load i32, ptr %3, align 4
  %32 = add i32 %31, 1
  store i32 %32, ptr %3, align 4
  br label %5

33:                                               ; preds = %5
  %34 = load ptr, ptr %2, align 8
  %35 = getelementptr inbounds nuw %struct.VuDev, ptr %34, i32 0, i32 1
  store i32 0, ptr %35, align 4
  call void @llvm.lifetime.end.p0(i64 4, ptr %3) #13
  ret void
}

; Function Attrs: nounwind uwtable
define dso_local void @vu_deinit(ptr noundef %0) #0 {
  %2 = alloca ptr, align 8
  %3 = alloca i32, align 4
  %4 = alloca ptr, align 8
  store ptr %0, ptr %2, align 8
  call void @llvm.lifetime.start.p0(i64 4, ptr %3) #13
  store i32 0, ptr %3, align 4, !annotation !4
  %5 = load ptr, ptr %2, align 8
  call void @vu_remove_all_mem_regs(ptr noundef %5)
  store i32 0, ptr %3, align 4
  br label %6

6:                                                ; preds = %76, %1
  %7 = load i32, ptr %3, align 4
  %8 = load ptr, ptr %2, align 8
  %9 = getelementptr inbounds nuw %struct.VuDev, ptr %8, i32 0, i32 13
  %10 = load i16, ptr %9, align 2
  %11 = zext i16 %10 to i32
  %12 = icmp ult i32 %7, %11
  br i1 %12, label %13, label %79

13:                                               ; preds = %6
  call void @llvm.lifetime.start.p0(i64 8, ptr %4) #13
  %14 = load ptr, ptr %2, align 8
  %15 = getelementptr inbounds nuw %struct.VuDev, ptr %14, i32 0, i32 3
  %16 = load ptr, ptr %15, align 8
  %17 = load i32, ptr %3, align 4
  %18 = zext i32 %17 to i64
  %19 = getelementptr inbounds nuw %struct.VuVirtq, ptr %16, i64 %18
  store ptr %19, ptr %4, align 8
  %20 = load ptr, ptr %4, align 8
  %21 = getelementptr inbounds nuw %struct.VuVirtq, ptr %20, i32 0, i32 13
  %22 = load i32, ptr %21, align 8
  %23 = icmp ne i32 %22, -1
  br i1 %23, label %24, label %31

24:                                               ; preds = %13
  %25 = load ptr, ptr %4, align 8
  %26 = getelementptr inbounds nuw %struct.VuVirtq, ptr %25, i32 0, i32 13
  %27 = load i32, ptr %26, align 8
  %28 = call i32 @close(i32 noundef %27)
  %29 = load ptr, ptr %4, align 8
  %30 = getelementptr inbounds nuw %struct.VuVirtq, ptr %29, i32 0, i32 13
  store i32 -1, ptr %30, align 8
  br label %31

31:                                               ; preds = %24, %13
  %32 = load ptr, ptr %4, align 8
  %33 = getelementptr inbounds nuw %struct.VuVirtq, ptr %32, i32 0, i32 14
  %34 = load i32, ptr %33, align 4
  %35 = icmp ne i32 %34, -1
  br i1 %35, label %36, label %50

36:                                               ; preds = %31
  %37 = load ptr, ptr %2, align 8
  %38 = getelementptr inbounds nuw %struct.VuDev, ptr %37, i32 0, i32 16
  %39 = load ptr, ptr %38, align 8
  %40 = load ptr, ptr %2, align 8
  %41 = load ptr, ptr %4, align 8
  %42 = getelementptr inbounds nuw %struct.VuVirtq, ptr %41, i32 0, i32 14
  %43 = load i32, ptr %42, align 4
  call void %39(ptr noundef %40, i32 noundef %43)
  %44 = load ptr, ptr %4, align 8
  %45 = getelementptr inbounds nuw %struct.VuVirtq, ptr %44, i32 0, i32 14
  %46 = load i32, ptr %45, align 4
  %47 = call i32 @close(i32 noundef %46)
  %48 = load ptr, ptr %4, align 8
  %49 = getelementptr inbounds nuw %struct.VuVirtq, ptr %48, i32 0, i32 14
  store i32 -1, ptr %49, align 4
  br label %50

50:                                               ; preds = %36, %31
  %51 = load ptr, ptr %4, align 8
  %52 = getelementptr inbounds nuw %struct.VuVirtq, ptr %51, i32 0, i32 15
  %53 = load i32, ptr %52, align 8
  %54 = icmp ne i32 %53, -1
  br i1 %54, label %55, label %62

55:                                               ; preds = %50
  %56 = load ptr, ptr %4, align 8
  %57 = getelementptr inbounds nuw %struct.VuVirtq, ptr %56, i32 0, i32 15
  %58 = load i32, ptr %57, align 8
  %59 = call i32 @close(i32 noundef %58)
  %60 = load ptr, ptr %4, align 8
  %61 = getelementptr inbounds nuw %struct.VuVirtq, ptr %60, i32 0, i32 15
  store i32 -1, ptr %61, align 8
  br label %62

62:                                               ; preds = %55, %50
  %63 = load ptr, ptr %4, align 8
  %64 = getelementptr inbounds nuw %struct.VuVirtq, ptr %63, i32 0, i32 2
  %65 = load ptr, ptr %64, align 8
  %66 = icmp ne ptr %65, null
  br i1 %66, label %67, label %73

67:                                               ; preds = %62
  %68 = load ptr, ptr %4, align 8
  %69 = getelementptr inbounds nuw %struct.VuVirtq, ptr %68, i32 0, i32 2
  %70 = load ptr, ptr %69, align 8
  call void @free(ptr noundef %70) #13
  %71 = load ptr, ptr %4, align 8
  %72 = getelementptr inbounds nuw %struct.VuVirtq, ptr %71, i32 0, i32 2
  store ptr null, ptr %72, align 8
  br label %73

73:                                               ; preds = %67, %62
  %74 = load ptr, ptr %4, align 8
  %75 = getelementptr inbounds nuw %struct.VuVirtq, ptr %74, i32 0, i32 1
  store ptr null, ptr %75, align 8
  call void @llvm.lifetime.end.p0(i64 8, ptr %4) #13
  br label %76

76:                                               ; preds = %73
  %77 = load i32, ptr %3, align 4
  %78 = add i32 %77, 1
  store i32 %78, ptr %3, align 4
  br label %6

79:                                               ; preds = %6
  %80 = load ptr, ptr %2, align 8
  %81 = getelementptr inbounds nuw %struct.VuDev, ptr %80, i32 0, i32 4
  %82 = getelementptr inbounds nuw %struct.VuDevInflightInfo, ptr %81, i32 0, i32 1
  %83 = load ptr, ptr %82, align 8
  %84 = icmp ne ptr %83, null
  br i1 %84, label %85, label %98

85:                                               ; preds = %79
  %86 = load ptr, ptr %2, align 8
  %87 = getelementptr inbounds nuw %struct.VuDev, ptr %86, i32 0, i32 4
  %88 = getelementptr inbounds nuw %struct.VuDevInflightInfo, ptr %87, i32 0, i32 1
  %89 = load ptr, ptr %88, align 8
  %90 = load ptr, ptr %2, align 8
  %91 = getelementptr inbounds nuw %struct.VuDev, ptr %90, i32 0, i32 4
  %92 = getelementptr inbounds nuw %struct.VuDevInflightInfo, ptr %91, i32 0, i32 2
  %93 = load i64, ptr %92, align 8
  %94 = call i32 @munmap(ptr noundef %89, i64 noundef %93) #13
  %95 = load ptr, ptr %2, align 8
  %96 = getelementptr inbounds nuw %struct.VuDev, ptr %95, i32 0, i32 4
  %97 = getelementptr inbounds nuw %struct.VuDevInflightInfo, ptr %96, i32 0, i32 1
  store ptr null, ptr %97, align 8
  br label %98

98:                                               ; preds = %85, %79
  %99 = load ptr, ptr %2, align 8
  %100 = getelementptr inbounds nuw %struct.VuDev, ptr %99, i32 0, i32 4
  %101 = getelementptr inbounds nuw %struct.VuDevInflightInfo, ptr %100, i32 0, i32 0
  %102 = load i32, ptr %101, align 8
  %103 = icmp sgt i32 %102, 0
  br i1 %103, label %104, label %113

104:                                              ; preds = %98
  %105 = load ptr, ptr %2, align 8
  %106 = getelementptr inbounds nuw %struct.VuDev, ptr %105, i32 0, i32 4
  %107 = getelementptr inbounds nuw %struct.VuDevInflightInfo, ptr %106, i32 0, i32 0
  %108 = load i32, ptr %107, align 8
  %109 = call i32 @close(i32 noundef %108)
  %110 = load ptr, ptr %2, align 8
  %111 = getelementptr inbounds nuw %struct.VuDev, ptr %110, i32 0, i32 4
  %112 = getelementptr inbounds nuw %struct.VuDevInflightInfo, ptr %111, i32 0, i32 0
  store i32 -1, ptr %112, align 8
  br label %113

113:                                              ; preds = %104, %98
  %114 = load ptr, ptr %2, align 8
  call void @vu_close_log(ptr noundef %114)
  %115 = load ptr, ptr %2, align 8
  %116 = getelementptr inbounds nuw %struct.VuDev, ptr %115, i32 0, i32 7
  %117 = load i32, ptr %116, align 8
  %118 = icmp ne i32 %117, -1
  br i1 %118, label %119, label %126

119:                                              ; preds = %113
  %120 = load ptr, ptr %2, align 8
  %121 = getelementptr inbounds nuw %struct.VuDev, ptr %120, i32 0, i32 7
  %122 = load i32, ptr %121, align 8
  %123 = call i32 @close(i32 noundef %122)
  %124 = load ptr, ptr %2, align 8
  %125 = getelementptr inbounds nuw %struct.VuDev, ptr %124, i32 0, i32 7
  store i32 -1, ptr %125, align 8
  br label %126

126:                                              ; preds = %119, %113
  %127 = load ptr, ptr %2, align 8
  %128 = getelementptr inbounds nuw %struct.VuDev, ptr %127, i32 0, i32 6
  %129 = call i32 @pthread_mutex_destroy(ptr noundef %128) #13
  %130 = load ptr, ptr %2, align 8
  %131 = getelementptr inbounds nuw %struct.VuDev, ptr %130, i32 0, i32 0
  %132 = load i32, ptr %131, align 8
  %133 = icmp ne i32 %132, -1
  br i1 %133, label %134, label %139

134:                                              ; preds = %126
  %135 = load ptr, ptr %2, align 8
  %136 = getelementptr inbounds nuw %struct.VuDev, ptr %135, i32 0, i32 0
  %137 = load i32, ptr %136, align 8
  %138 = call i32 @close(i32 noundef %137)
  br label %139

139:                                              ; preds = %134, %126
  %140 = load ptr, ptr %2, align 8
  %141 = getelementptr inbounds nuw %struct.VuDev, ptr %140, i32 0, i32 3
  %142 = load ptr, ptr %141, align 8
  call void @free(ptr noundef %142) #13
  %143 = load ptr, ptr %2, align 8
  %144 = getelementptr inbounds nuw %struct.VuDev, ptr %143, i32 0, i32 3
  store ptr null, ptr %144, align 8
  %145 = load ptr, ptr %2, align 8
  %146 = getelementptr inbounds nuw %struct.VuDev, ptr %145, i32 0, i32 2
  %147 = load ptr, ptr %146, align 8
  call void @free(ptr noundef %147) #13
  %148 = load ptr, ptr %2, align 8
  %149 = getelementptr inbounds nuw %struct.VuDev, ptr %148, i32 0, i32 2
  store ptr null, ptr %149, align 8
  call void @llvm.lifetime.end.p0(i64 4, ptr %3) #13
  ret void
}