; Function Attrs: nounwind uwtable
define dso_local void @vu_deinit(ptr noundef %0) local_unnamed_addr #3 {
  %2 = getelementptr inbounds nuw i8, ptr %0, i64 4
  %3 = load i32, ptr %2, align 4
  %.not.i = icmp eq i32 %3, 0
  br i1 %.not.i, label %vu_remove_all_mem_regs.exit, label %.lr.ph.i

.lr.ph.i:                                         ; preds = %1
  %4 = getelementptr inbounds nuw i8, ptr %0, i64 8
  br label %5

5:                                                ; preds = %5, %.lr.ph.i
  %indvars.iv.i = phi i64 [ 0, %.lr.ph.i ], [ %indvars.iv.next.i, %5 ]
  %6 = load ptr, ptr %4, align 8
  %7 = getelementptr inbounds nuw %struct.VuDevRegion, ptr %6, i64 %indvars.iv.i
  %8 = getelementptr inbounds nuw i8, ptr %7, i64 32
  %9 = load i64, ptr %8, align 8
  %10 = inttoptr i64 %9 to ptr
  %11 = getelementptr inbounds nuw i8, ptr %7, i64 8
  %12 = load i64, ptr %11, align 8
  %13 = getelementptr inbounds nuw i8, ptr %7, i64 24
  %14 = load i64, ptr %13, align 8
  %15 = add i64 %14, %12
  %16 = tail call i32 @munmap(ptr noundef %10, i64 noundef %15) #21
  %indvars.iv.next.i = add nuw nsw i64 %indvars.iv.i, 1
  %17 = load i32, ptr %2, align 4
  %18 = zext i32 %17 to i64
  %19 = icmp samesign ult i64 %indvars.iv.next.i, %18
  br i1 %19, label %5, label %vu_remove_all_mem_regs.exit

vu_remove_all_mem_regs.exit:                      ; preds = %5, %1
  store i32 0, ptr %2, align 4
  %20 = getelementptr inbounds nuw i8, ptr %0, i64 138
  %21 = load i16, ptr %20, align 2
  %.not55 = icmp eq i16 %21, 0
  br i1 %.not55, label %._crit_edge, label %.lr.ph

.lr.ph:                                           ; preds = %vu_remove_all_mem_regs.exit
  %22 = getelementptr inbounds nuw i8, ptr %0, i64 16
  %23 = getelementptr inbounds nuw i8, ptr %0, i64 160
  br label %24

24:                                               ; preds = %.lr.ph, %47
  %indvars.iv = phi i64 [ 0, %.lr.ph ], [ %indvars.iv.next, %47 ]
  %25 = load ptr, ptr %22, align 8
  %26 = getelementptr inbounds nuw %struct.VuVirtq, ptr %25, i64 %indvars.iv
  %27 = getelementptr inbounds nuw i8, ptr %26, i64 104
  %28 = load i32, ptr %27, align 8
  %.not49 = icmp eq i32 %28, -1
  br i1 %.not49, label %31, label %29

29:                                               ; preds = %24
  %30 = tail call i32 @close(i32 noundef %28) #21
  store i32 -1, ptr %27, align 8
  br label %31

31:                                               ; preds = %29, %24
  %32 = getelementptr inbounds nuw i8, ptr %26, i64 108
  %33 = load i32, ptr %32, align 4
  %.not50 = icmp eq i32 %33, -1
  br i1 %.not50, label %38, label %34

34:                                               ; preds = %31
  %35 = load ptr, ptr %23, align 8
  tail call void %35(ptr noundef nonnull %0, i32 noundef %33) #21
  %36 = load i32, ptr %32, align 4
  %37 = tail call i32 @close(i32 noundef %36) #21
  store i32 -1, ptr %32, align 4
  br label %38

38:                                               ; preds = %34, %31
  %39 = getelementptr inbounds nuw i8, ptr %26, i64 112
  %40 = load i32, ptr %39, align 8
  %.not51 = icmp eq i32 %40, -1
  br i1 %.not51, label %43, label %41

41:                                               ; preds = %38
  %42 = tail call i32 @close(i32 noundef %40) #21
  store i32 -1, ptr %39, align 8
  br label %43

43:                                               ; preds = %41, %38
  %44 = getelementptr inbounds nuw i8, ptr %26, i64 56
  %45 = load ptr, ptr %44, align 8
  %.not52 = icmp eq ptr %45, null
  br i1 %.not52, label %47, label %46

46:                                               ; preds = %43
  tail call void @free(ptr noundef nonnull %45) #21
  store ptr null, ptr %44, align 8
  br label %47

47:                                               ; preds = %46, %43
  %48 = getelementptr inbounds nuw i8, ptr %26, i64 48
  store ptr null, ptr %48, align 8
  %indvars.iv.next = add nuw nsw i64 %indvars.iv, 1
  %49 = load i16, ptr %20, align 2
  %50 = zext i16 %49 to i64
  %51 = icmp samesign ult i64 %indvars.iv.next, %50
  br i1 %51, label %24, label %._crit_edge

._crit_edge:                                      ; preds = %47, %vu_remove_all_mem_regs.exit
  %52 = getelementptr inbounds nuw i8, ptr %0, i64 24
  %53 = getelementptr inbounds nuw i8, ptr %0, i64 32
  %54 = load ptr, ptr %53, align 8
  %.not = icmp eq ptr %54, null
  br i1 %.not, label %59, label %55

55:                                               ; preds = %._crit_edge
  %56 = getelementptr inbounds nuw i8, ptr %0, i64 40
  %57 = load i64, ptr %56, align 8
  %58 = tail call i32 @munmap(ptr noundef nonnull %54, i64 noundef %57) #21
  store ptr null, ptr %53, align 8
  br label %59

59:                                               ; preds = %55, %._crit_edge
  %60 = load i32, ptr %52, align 8
  %61 = icmp sgt i32 %60, 0
  br i1 %61, label %62, label %64

62:                                               ; preds = %59
  %63 = tail call i32 @close(i32 noundef %60) #21
  store i32 -1, ptr %52, align 8
  br label %64

64:                                               ; preds = %62, %59
  %65 = getelementptr inbounds nuw i8, ptr %0, i64 112
  %66 = load ptr, ptr %65, align 8
  %.not.i53 = icmp eq ptr %66, null
  br i1 %.not.i53, label %73, label %67

67:                                               ; preds = %64
  %68 = getelementptr inbounds nuw i8, ptr %0, i64 104
  %69 = load i64, ptr %68, align 8
  %70 = tail call i32 @munmap(ptr noundef nonnull %66, i64 noundef %69) #21
  %.not8.i = icmp eq i32 %70, 0
  br i1 %.not8.i, label %72, label %71

71:                                               ; preds = %67
  tail call void @perror(ptr noundef nonnull @.str.97) #24
  br label %72

72:                                               ; preds = %71, %67
  store ptr null, ptr %65, align 8
  br label %73

73:                                               ; preds = %72, %64
  %74 = getelementptr inbounds nuw i8, ptr %0, i64 48
  %75 = load i32, ptr %74, align 8
  %.not9.i = icmp eq i32 %75, -1
  br i1 %.not9.i, label %vu_close_log.exit, label %76

76:                                               ; preds = %73
  %77 = tail call i32 @close(i32 noundef %75) #21
  store i32 -1, ptr %74, align 8
  br label %vu_close_log.exit

vu_close_log.exit:                                ; preds = %73, %76
  %78 = getelementptr inbounds nuw i8, ptr %0, i64 96
  %79 = load i32, ptr %78, align 8
  %.not47 = icmp eq i32 %79, -1
  br i1 %.not47, label %82, label %80

80:                                               ; preds = %vu_close_log.exit
  %81 = tail call i32 @close(i32 noundef %79) #21
  store i32 -1, ptr %78, align 8
  br label %82

82:                                               ; preds = %80, %vu_close_log.exit
  %83 = getelementptr inbounds nuw i8, ptr %0, i64 56
  %84 = tail call i32 @pthread_mutex_destroy(ptr noundef nonnull %83) #21
  %85 = load i32, ptr %0, align 8
  %.not48 = icmp eq i32 %85, -1
  br i1 %.not48, label %88, label %86

86:                                               ; preds = %82
  %87 = tail call i32 @close(i32 noundef %85) #21
  br label %88

88:                                               ; preds = %86, %82
  %89 = getelementptr inbounds nuw i8, ptr %0, i64 16
  %90 = load ptr, ptr %89, align 8
  tail call void @free(ptr noundef %90) #21
  store ptr null, ptr %89, align 8
  %91 = getelementptr inbounds nuw i8, ptr %0, i64 8
  %92 = load ptr, ptr %91, align 8
  tail call void @free(ptr noundef %92) #21
  store ptr null, ptr %91, align 8
  ret void
}